target datalayout = "e-m:e-p270:32:32-p271:32:32-p272:64:64-i64:64-i128:128-f80:128-n8:16:32:64-S128"
target triple = "x86_64-pc-linux-gnu"

%struct.Node = type { i32 }
%union.ListCell = type { ptr }
%struct.List = type { i32, i32, i32, ptr, [0 x %union.ListCell] }
%struct.ForFourState = type { ptr, ptr, ptr, ptr, i32 }
%struct.TargetEntry = type { %struct.Expr, ptr, i16, ptr, i32, i32, i16, i8 }
%struct.Expr = type { i32 }

@.str.3 = private unnamed_addr constant [23 x i8] c"UNION/INTERSECT/EXCEPT\00", align 1

; Function Attrs: nounwind uwtable
define internal ptr @generate_setop_tlist(ptr noundef %0, ptr noundef %1, i32 noundef %2, i1 noundef zeroext %3, ptr noundef %4, ptr noundef %5, ptr noundef %6) #0 {
  %8 = alloca ptr, align 8
  %9 = alloca ptr, align 8
  %10 = alloca i32, align 4
  %11 = alloca i8, align 1
  %12 = alloca ptr, align 8
  %13 = alloca ptr, align 8
  %14 = alloca ptr, align 8
  %15 = alloca ptr, align 8
  %16 = alloca i32, align 4
  %17 = alloca ptr, align 8
  %18 = alloca ptr, align 8
  %19 = alloca ptr, align 8
  %20 = alloca ptr, align 8
  %21 = alloca ptr, align 8
  %22 = alloca ptr, align 8
  %23 = alloca %struct.ForFourState, align 8
  %24 = alloca i32, align 4
  %25 = alloca i32, align 4
  %26 = alloca ptr, align 8
  %27 = alloca ptr, align 8
  store ptr %0, ptr %8, align 8
  store ptr %1, ptr %9, align 8
  store i32 %2, ptr %10, align 4
  %28 = zext i1 %3 to i8
  store i8 %28, ptr %11, align 1
  store ptr %4, ptr %12, align 8
  store ptr %5, ptr %13, align 8
  store ptr %6, ptr %14, align 8
  call void @llvm.lifetime.start.p0(i64 8, ptr %15) #7
  store ptr null, ptr %15, align 8
  call void @llvm.lifetime.start.p0(i64 4, ptr %16) #7
  store i32 1, ptr %16, align 4
  call void @llvm.lifetime.start.p0(i64 8, ptr %17) #7
  call void @llvm.lifetime.start.p0(i64 8, ptr %18) #7
  call void @llvm.lifetime.start.p0(i64 8, ptr %19) #7
  call void @llvm.lifetime.start.p0(i64 8, ptr %20) #7
  call void @llvm.lifetime.start.p0(i64 8, ptr %21) #7
  call void @llvm.lifetime.start.p0(i64 8, ptr %22) #7
  %29 = load ptr, ptr %14, align 8
  store i8 1, ptr %29, align 1
  call void @llvm.lifetime.start.p0(i64 40, ptr %23) #7
  %30 = getelementptr inbounds nuw %struct.ForFourState, ptr %23, i32 0, i32 0
  %31 = load ptr, ptr %8, align 8
  store ptr %31, ptr %30, align 8
  %32 = getelementptr inbounds nuw %struct.ForFourState, ptr %23, i32 0, i32 1
  %33 = load ptr, ptr %9, align 8
  store ptr %33, ptr %32, align 8
  %34 = getelementptr inbounds nuw %struct.ForFourState, ptr %23, i32 0, i32 2
  %35 = load ptr, ptr %12, align 8
  store ptr %35, ptr %34, align 8
  %36 = getelementptr inbounds nuw %struct.ForFourState, ptr %23, i32 0, i32 3
  %37 = load ptr, ptr %13, align 8
  store ptr %37, ptr %36, align 8
  %38 = getelementptr inbounds nuw %struct.ForFourState, ptr %23, i32 0, i32 4
  store i32 0, ptr %38, align 8
  %39 = getelementptr i8, ptr %23, i64 36
  call void @llvm.memset.p0.i64(ptr align 4 %39, i8 0, i64 4, i1 false)
  br label %40

40:                                               ; preds = %235, %7
  %41 = getelementptr inbounds nuw %struct.ForFourState, ptr %23, i32 0, i32 0
  %42 = load ptr, ptr %41, align 8
  %43 = icmp ne ptr %42, null
  br i1 %43, label %44, label %61

44:                                               ; preds = %40
  %45 = getelementptr inbounds nuw %struct.ForFourState, ptr %23, i32 0, i32 4
  %46 = load i32, ptr %45, align 8
  %47 = getelementptr inbounds nuw %struct.ForFourState, ptr %23, i32 0, i32 0
  %48 = load ptr, ptr %47, align 8
  %49 = getelementptr inbounds nuw %struct.List, ptr %48, i32 0, i32 1
  %50 = load i32, ptr %49, align 4
  %51 = icmp slt i32 %46, %50
  br i1 %51, label %52, label %61

52:                                               ; preds = %44
  %53 = getelementptr inbounds nuw %struct.ForFourState, ptr %23, i32 0, i32 0
  %54 = load ptr, ptr %53, align 8
  %55 = getelementptr inbounds nuw %struct.List, ptr %54, i32 0, i32 3
  %56 = load ptr, ptr %55, align 8
  %57 = getelementptr inbounds nuw %struct.ForFourState, ptr %23, i32 0, i32 4
  %58 = load i32, ptr %57, align 8
  %59 = sext i32 %58 to i64
  %60 = getelementptr inbounds %union.ListCell, ptr %56, i64 %59
  br label %62

61:                                               ; preds = %44, %40
  br label %62

62:                                               ; preds = %61, %52
  %63 = phi ptr [ %60, %52 ], [ null, %61 ]
  store ptr %63, ptr %17, align 8
  %64 = getelementptr inbounds nuw %struct.ForFourState, ptr %23, i32 0, i32 1
  %65 = load ptr, ptr %64, align 8
  %66 = icmp ne ptr %65, null
  br i1 %66, label %67, label %84

67:                                               ; preds = %62
  %68 = getelementptr inbounds nuw %struct.ForFourState, ptr %23, i32 0, i32 4
  %69 = load i32, ptr %68, align 8
  %70 = getelementptr inbounds nuw %struct.ForFourState, ptr %23, i32 0, i32 1
  %71 = load ptr, ptr %70, align 8
  %72 = getelementptr inbounds nuw %struct.List, ptr %71, i32 0, i32 1
  %73 = load i32, ptr %72, align 4
  %74 = icmp slt i32 %69, %73
  br i1 %74, label %75, label %84

75:                                               ; preds = %67
  %76 = getelementptr inbounds nuw %struct.ForFourState, ptr %23, i32 0, i32 1
  %77 = load ptr, ptr %76, align 8
  %78 = getelementptr inbounds nuw %struct.List, ptr %77, i32 0, i32 3
  %79 = load ptr, ptr %78, align 8
  %80 = getelementptr inbounds nuw %struct.ForFourState, ptr %23, i32 0, i32 4
  %81 = load i32, ptr %80, align 8
  %82 = sext i32 %81 to i64
  %83 = getelementptr inbounds %union.ListCell, ptr %79, i64 %82
  br label %85

84:                                               ; preds = %67, %62
  br label %85

85:                                               ; preds = %84, %75
  %86 = phi ptr [ %83, %75 ], [ null, %84 ]
  store ptr %86, ptr %18, align 8
  %87 = getelementptr inbounds nuw %struct.ForFourState, ptr %23, i32 0, i32 2
  %88 = load ptr, ptr %87, align 8
  %89 = icmp ne ptr %88, null
  br i1 %89, label %90, label %107

90:                                               ; preds = %85
  %91 = getelementptr inbounds nuw %struct.ForFourState, ptr %23, i32 0, i32 4
  %92 = load i32, ptr %91, align 8
  %93 = getelementptr inbounds nuw %struct.ForFourState, ptr %23, i32 0, i32 2
  %94 = load ptr, ptr %93, align 8
  %95 = getelementptr inbounds nuw %struct.List, ptr %94, i32 0, i32 1
  %96 = load i32, ptr %95, align 4
  %97 = icmp slt i32 %92, %96
  br i1 %97, label %98, label %107

98:                                               ; preds = %90
  %99 = getelementptr inbounds nuw %struct.ForFourState, ptr %23, i32 0, i32 2
  %100 = load ptr, ptr %99, align 8
  %101 = getelementptr inbounds nuw %struct.List, ptr %100, i32 0, i32 3
  %102 = load ptr, ptr %101, align 8
  %103 = getelementptr inbounds nuw %struct.ForFourState, ptr %23, i32 0, i32 4
  %104 = load i32, ptr %103, align 8
  %105 = sext i32 %104 to i64
  %106 = getelementptr inbounds %union.ListCell, ptr %102, i64 %105
  br label %108

107:                                              ; preds = %90, %85
  br label %108

108:                                              ; preds = %107, %98
  %109 = phi ptr [ %106, %98 ], [ null, %107 ]
  store ptr %109, ptr %19, align 8
  %110 = getelementptr inbounds nuw %struct.ForFourState, ptr %23, i32 0, i32 3
  %111 = load ptr, ptr %110, align 8
  %112 = icmp ne ptr %111, null
  br i1 %112, label %113, label %130

113:                                              ; preds = %108
  %114 = getelementptr inbounds nuw %struct.ForFourState, ptr %23, i32 0, i32 4
  %115 = load i32, ptr %114, align 8
  %116 = getelementptr inbounds nuw %struct.ForFourState, ptr %23, i32 0, i32 3
  %117 = load ptr, ptr %116, align 8
  %118 = getelementptr inbounds nuw %struct.List, ptr %117, i32 0, i32 1
  %119 = load i32, ptr %118, align 4
  %120 = icmp slt i32 %115, %119
  br i1 %120, label %121, label %130

121:                                              ; preds = %113
  %122 = getelementptr inbounds nuw %struct.ForFourState, ptr %23, i32 0, i32 3
  %123 = load ptr, ptr %122, align 8
  %124 = getelementptr inbounds nuw %struct.List, ptr %123, i32 0, i32 3
  %125 = load ptr, ptr %124, align 8
  %126 = getelementptr inbounds nuw %struct.ForFourState, ptr %23, i32 0, i32 4
  %127 = load i32, ptr %126, align 8
  %128 = sext i32 %127 to i64
  %129 = getelementptr inbounds %union.ListCell, ptr %125, i64 %128
  br label %131

130:                                              ; preds = %113, %108
  br label %131

131:                                              ; preds = %130, %121
  %132 = phi ptr [ %129, %121 ], [ null, %130 ]
  store ptr %132, ptr %20, align 8
  %133 = load ptr, ptr %17, align 8
  %134 = icmp ne ptr %133, null
  br i1 %134, label %135, label %144

135:                                              ; preds = %131
  %136 = load ptr, ptr %18, align 8
  %137 = icmp ne ptr %136, null
  br i1 %137, label %138, label %144

138:                                              ; preds = %135
  %139 = load ptr, ptr %19, align 8
  %140 = icmp ne ptr %139, null
  br i1 %140, label %141, label %144

141:                                              ; preds = %138
  %142 = load ptr, ptr %20, align 8
  %143 = icmp ne ptr %142, null
  br label %144

144:                                              ; preds = %141, %138, %135, %131
  %145 = phi i1 [ false, %138 ], [ false, %135 ], [ false, %131 ], [ %143, %141 ]
  br i1 %145, label %147, label %146

146:                                              ; preds = %144
  call void @llvm.lifetime.end.p0(i64 40, ptr %23) #7
  br label %239

147:                                              ; preds = %144
  call void @llvm.lifetime.start.p0(i64 4, ptr %24) #7
  %148 = load ptr, ptr %17, align 8
  %149 = load i32, ptr %148, align 8
  store i32 %149, ptr %24, align 4
  call void @llvm.lifetime.start.p0(i64 4, ptr %25) #7
  %150 = load ptr, ptr %18, align 8
  %151 = load i32, ptr %150, align 8
  store i32 %151, ptr %25, align 4
  call void @llvm.lifetime.start.p0(i64 8, ptr %26) #7
  %152 = load ptr, ptr %19, align 8
  %153 = load ptr, ptr %152, align 8
  store ptr %153, ptr %26, align 8
  call void @llvm.lifetime.start.p0(i64 8, ptr %27) #7
  %154 = load ptr, ptr %20, align 8
  %155 = load ptr, ptr %154, align 8
  store ptr %155, ptr %27, align 8
  %156 = load i8, ptr %11, align 1, !range !6, !noundef !7
  %157 = trunc i8 %156 to i1
  br i1 %157, label %158, label %174

158:                                              ; preds = %147
  %159 = load ptr, ptr %26, align 8
  %160 = getelementptr inbounds nuw %struct.TargetEntry, ptr %159, i32 0, i32 1
  %161 = load ptr, ptr %160, align 8
  %162 = icmp ne ptr %161, null
  br i1 %162, label %163, label %174

163:                                              ; preds = %158
  %164 = load ptr, ptr %26, align 8
  %165 = getelementptr inbounds nuw %struct.TargetEntry, ptr %164, i32 0, i32 1
  %166 = load ptr, ptr %165, align 8
  %167 = getelementptr inbounds nuw %struct.Node, ptr %166, i32 0, i32 0
  %168 = load i32, ptr %167, align 4
  %169 = icmp eq i32 %168, 7
  br i1 %169, label %170, label %174

170:                                              ; preds = %163
  %171 = load ptr, ptr %26, align 8
  %172 = getelementptr inbounds nuw %struct.TargetEntry, ptr %171, i32 0, i32 1
  %173 = load ptr, ptr %172, align 8
  store ptr %173, ptr %22, align 8
  br label %192

174:                                              ; preds = %163, %158, %147
  %175 = load i32, ptr %10, align 4
  %176 = load ptr, ptr %26, align 8
  %177 = getelementptr inbounds nuw %struct.TargetEntry, ptr %176, i32 0, i32 2
  %178 = load i16, ptr %177, align 8
  %179 = load ptr, ptr %26, align 8
  %180 = getelementptr inbounds nuw %struct.TargetEntry, ptr %179, i32 0, i32 1
  %181 = load ptr, ptr %180, align 8
  %182 = call i32 @exprType(ptr noundef %181)
  %183 = load ptr, ptr %26, align 8
  %184 = getelementptr inbounds nuw %struct.TargetEntry, ptr %183, i32 0, i32 1
  %185 = load ptr, ptr %184, align 8
  %186 = call i32 @exprTypmod(ptr noundef %185)
  %187 = load ptr, ptr %26, align 8
  %188 = getelementptr inbounds nuw %struct.TargetEntry, ptr %187, i32 0, i32 1
  %189 = load ptr, ptr %188, align 8
  %190 = call i32 @exprCollation(ptr noundef %189)
  %191 = call ptr @makeVar(i32 noundef %175, i16 noundef signext %178, i32 noundef %182, i32 noundef %186, i32 noundef %190, i32 noundef 0)
  store ptr %191, ptr %22, align 8
  br label %192

192:                                              ; preds = %174, %170
  %193 = load ptr, ptr %22, align 8
  %194 = call i32 @exprType(ptr noundef %193)
  %195 = load i32, ptr %24, align 4
  %196 = icmp ne i32 %194, %195
  br i1 %196, label %197, label %202

197:                                              ; preds = %192
  %198 = load ptr, ptr %22, align 8
  %199 = load i32, ptr %24, align 4
  %200 = call ptr @coerce_to_common_type(ptr noundef null, ptr noundef %198, i32 noundef %199, ptr noundef @.str.3)
  store ptr %200, ptr %22, align 8
  %201 = load ptr, ptr %14, align 8
  store i8 0, ptr %201, align 1
  br label %202

202:                                              ; preds = %197, %192
  %203 = load ptr, ptr %22, align 8
  %204 = call i32 @exprCollation(ptr noundef %203)
  %205 = load i32, ptr %25, align 4
  %206 = icmp ne i32 %204, %205
  br i1 %206, label %207, label %216

207:                                              ; preds = %202
  %208 = load ptr, ptr %22, align 8
  %209 = load ptr, ptr %22, align 8
  %210 = call i32 @exprType(ptr noundef %209)
  %211 = load ptr, ptr %22, align 8
  %212 = call i32 @exprTypmod(ptr noundef %211)
  %213 = load i32, ptr %25, align 4
  %214 = call ptr @applyRelabelType(ptr noundef %208, i32 noundef %210, i32 noundef %212, i32 noundef %213, i32 noundef 2, i32 noundef -1, i1 noundef zeroext false)
  store ptr %214, ptr %22, align 8
  %215 = load ptr, ptr %14, align 8
  store i8 0, ptr %215, align 1
  br label %216

216:                                              ; preds = %207, %202
  %217 = load ptr, ptr %22, align 8
  %218 = load i32, ptr %16, align 4
  %219 = add i32 %218, 1
  store i32 %219, ptr %16, align 4
  %220 = trunc i32 %218 to i16
  %221 = load ptr, ptr %27, align 8
  %222 = getelementptr inbounds nuw %struct.TargetEntry, ptr %221, i32 0, i32 3
  %223 = load ptr, ptr %222, align 8
  %224 = call ptr @pstrdup(ptr noundef %223)
  %225 = call ptr @makeTargetEntry(ptr noundef %217, i16 noundef signext %220, ptr noundef %224, i1 noundef zeroext false)
  store ptr %225, ptr %21, align 8
  %226 = load ptr, ptr %21, align 8
  %227 = getelementptr inbounds nuw %struct.TargetEntry, ptr %226, i32 0, i32 2
  %228 = load i16, ptr %227, align 8
  %229 = sext i16 %228 to i32
  %230 = load ptr, ptr %21, align 8
  %231 = getelementptr inbounds nuw %struct.TargetEntry, ptr %230, i32 0, i32 4
  store i32 %229, ptr %231, align 8
  %232 = load ptr, ptr %15, align 8
  %233 = load ptr, ptr %21, align 8
  %234 = call ptr @lappend(ptr noundef %232, ptr noundef %233)
  store ptr %234, ptr %15, align 8
  call void @llvm.lifetime.end.p0(i64 8, ptr %27) #7
  call void @llvm.lifetime.end.p0(i64 8, ptr %26) #7
  call void @llvm.lifetime.end.p0(i64 4, ptr %25) #7
  call void @llvm.lifetime.end.p0(i64 4, ptr %24) #7
  br label %235

235:                                              ; preds = %216
  %236 = getelementptr inbounds nuw %struct.ForFourState, ptr %23, i32 0, i32 4
  %237 = load i32, ptr %236, align 8
  %238 = add i32 %237, 1
  store i32 %238, ptr %236, align 8
  br label %40, !llvm.loop !10

239:                                              ; preds = %146
  %240 = load ptr, ptr %15, align 8
  call void @llvm.lifetime.end.p0(i64 8, ptr %22) #7
  call void @llvm.lifetime.end.p0(i64 8, ptr %21) #7
  call void @llvm.lifetime.end.p0(i64 8, ptr %20) #7
  call void @llvm.lifetime.end.p0(i64 8, ptr %19) #7
  call void @llvm.lifetime.end.p0(i64 8, ptr %18) #7
  call void @llvm.lifetime.end.p0(i64 8, ptr %17) #7
  call void @llvm.lifetime.end.p0(i64 4, ptr %16) #7
  call void @llvm.lifetime.end.p0(i64 8, ptr %15) #7
  ret ptr %240
}