; Function Attrs: nounwind uwtable
define internal fastcc ptr @generate_setop_tlist(ptr noundef readonly captures(address_is_null) %0, ptr noundef readonly captures(address_is_null) %1, i32 noundef %2, i1 noundef zeroext %3, ptr noundef readonly captures(address_is_null) %4, ptr noundef readonly captures(address_is_null) %5, ptr noundef nonnull writeonly captures(none) initializes((0, 1)) %6) unnamed_addr #0 {
  store i8 1, ptr %6, align 1
  %.not = icmp eq ptr %0, null
  %.not75 = icmp eq ptr %1, null
  %.not76 = icmp eq ptr %4, null
  %.not77 = icmp eq ptr %5, null
  %8 = getelementptr inbounds nuw i8, ptr %0, i64 4
  %9 = getelementptr inbounds nuw i8, ptr %0, i64 16
  %10 = getelementptr inbounds nuw i8, ptr %1, i64 4
  %11 = getelementptr inbounds nuw i8, ptr %1, i64 16
  %12 = getelementptr inbounds nuw i8, ptr %4, i64 4
  %13 = getelementptr inbounds nuw i8, ptr %4, i64 16
  %14 = getelementptr inbounds nuw i8, ptr %5, i64 4
  %15 = getelementptr inbounds nuw i8, ptr %5, i64 16
  br label %16

16:                                               ; preds = %88, %7
  %.sroa.18.0 = phi i32 [ 0, %7 ], [ %99, %88 ]
  %.062 = phi i16 [ 1, %7 ], [ %89, %88 ]
  %.0 = phi ptr [ null, %7 ], [ %98, %88 ]
  br i1 %.not, label %24, label %17

17:                                               ; preds = %16
  %18 = load i32, ptr %8, align 4
  %19 = icmp slt i32 %.sroa.18.0, %18
  br i1 %19, label %20, label %24

20:                                               ; preds = %17
  %21 = load ptr, ptr %9, align 8
  %22 = sext i32 %.sroa.18.0 to i64
  %23 = getelementptr inbounds %union.ListCell, ptr %21, i64 %22
  br label %24

24:                                               ; preds = %16, %17, %20
  %25 = phi ptr [ %23, %20 ], [ null, %17 ], [ null, %16 ]
  br i1 %.not75, label %33, label %26

26:                                               ; preds = %24
  %27 = load i32, ptr %10, align 4
  %28 = icmp slt i32 %.sroa.18.0, %27
  br i1 %28, label %29, label %33

29:                                               ; preds = %26
  %30 = load ptr, ptr %11, align 8
  %31 = sext i32 %.sroa.18.0 to i64
  %32 = getelementptr inbounds %union.ListCell, ptr %30, i64 %31
  br label %33

33:                                               ; preds = %24, %26, %29
  %34 = phi ptr [ %32, %29 ], [ null, %26 ], [ null, %24 ]
  br i1 %.not76, label %42, label %35

35:                                               ; preds = %33
  %36 = load i32, ptr %12, align 4
  %37 = icmp slt i32 %.sroa.18.0, %36
  br i1 %37, label %38, label %42

38:                                               ; preds = %35
  %39 = load ptr, ptr %13, align 8
  %40 = sext i32 %.sroa.18.0 to i64
  %41 = getelementptr inbounds %union.ListCell, ptr %39, i64 %40
  br label %42

42:                                               ; preds = %33, %35, %38
  %43 = phi ptr [ %41, %38 ], [ null, %35 ], [ null, %33 ]
  br i1 %.not77, label %51, label %44

44:                                               ; preds = %42
  %45 = load i32, ptr %14, align 4
  %46 = icmp slt i32 %.sroa.18.0, %45
  br i1 %46, label %47, label %51

47:                                               ; preds = %44
  %48 = load ptr, ptr %15, align 8
  %49 = sext i32 %.sroa.18.0 to i64
  %50 = getelementptr inbounds %union.ListCell, ptr %48, i64 %49
  br label %51

51:                                               ; preds = %42, %44, %47
  %52 = phi ptr [ %50, %47 ], [ null, %44 ], [ null, %42 ]
  %53 = icmp ne ptr %25, null
  %54 = icmp ne ptr %34, null
  %or.cond = select i1 %53, i1 %54, i1 false
  %55 = icmp ne ptr %43, null
  %or.cond3 = select i1 %or.cond, i1 %55, i1 false
  %56 = icmp ne ptr %52, null
  %or.cond5 = select i1 %or.cond3, i1 %56, i1 false
  br i1 %or.cond5, label %57, label %.critedge

.critedge:                                        ; preds = %51
  ret ptr %.0

57:                                               ; preds = %51
  %58 = load i32, ptr %25, align 8
  %59 = load i32, ptr %34, align 8
  %60 = load ptr, ptr %43, align 8
  %61 = load ptr, ptr %52, align 8
  %62 = getelementptr inbounds nuw i8, ptr %60, i64 8
  %63 = load ptr, ptr %62, align 8
  br i1 %3, label %64, label %._crit_edge

64:                                               ; preds = %57
  %.not78 = icmp eq ptr %63, null
  br i1 %.not78, label %._crit_edge, label %65

65:                                               ; preds = %64
  %66 = load i32, ptr %63, align 4
  %67 = icmp eq i32 %66, 7
  br i1 %67, label %78, label %._crit_edge

._crit_edge:                                      ; preds = %57, %65, %64
  %68 = phi ptr [ %63, %65 ], [ null, %64 ], [ %63, %57 ]
  %69 = getelementptr inbounds nuw i8, ptr %60, i64 16
  %70 = load i16, ptr %69, align 8
  %71 = getelementptr inbounds nuw i8, ptr %60, i64 8
  %72 = tail call i32 @exprType(ptr noundef %68) #7
  %73 = load ptr, ptr %71, align 8
  %74 = tail call i32 @exprTypmod(ptr noundef %73) #7
  %75 = load ptr, ptr %71, align 8
  %76 = tail call i32 @exprCollation(ptr noundef %75) #7
  %77 = tail call ptr @makeVar(i32 noundef %2, i16 noundef signext %70, i32 noundef %72, i32 noundef %74, i32 noundef %76, i32 noundef 0) #7
  br label %78

78:                                               ; preds = %65, %._crit_edge
  %.063 = phi ptr [ %77, %._crit_edge ], [ %63, %65 ]
  %79 = tail call i32 @exprType(ptr noundef %.063) #7
  %.not79 = icmp eq i32 %79, %58
  br i1 %.not79, label %82, label %80

80:                                               ; preds = %78
  %81 = tail call ptr @coerce_to_common_type(ptr noundef null, ptr noundef %.063, i32 noundef %58, ptr noundef nonnull @.str.3) #7
  store i8 0, ptr %6, align 1
  br label %82

82:                                               ; preds = %80, %78
  %.1 = phi ptr [ %81, %80 ], [ %.063, %78 ]
  %83 = tail call i32 @exprCollation(ptr noundef %.1) #7
  %.not80 = icmp eq i32 %83, %59
  br i1 %.not80, label %88, label %84

84:                                               ; preds = %82
  %85 = tail call i32 @exprType(ptr noundef %.1) #7
  %86 = tail call i32 @exprTypmod(ptr noundef %.1) #7
  %87 = tail call ptr @applyRelabelType(ptr noundef %.1, i32 noundef %85, i32 noundef %86, i32 noundef %59, i32 noundef 2, i32 noundef -1, i1 noundef zeroext false) #7
  store i8 0, ptr %6, align 1
  br label %88

88:                                               ; preds = %84, %82
  %.2 = phi ptr [ %87, %84 ], [ %.1, %82 ]
  %89 = add i16 %.062, 1
  %90 = getelementptr inbounds nuw i8, ptr %61, i64 24
  %91 = load ptr, ptr %90, align 8
  %92 = tail call ptr @pstrdup(ptr noundef %91) #7
  %93 = tail call ptr @makeTargetEntry(ptr noundef %.2, i16 noundef signext %.062, ptr noundef %92, i1 noundef zeroext false) #7
  %94 = getelementptr inbounds nuw i8, ptr %93, i64 16
  %95 = load i16, ptr %94, align 8
  %96 = sext i16 %95 to i32
  %97 = getelementptr inbounds nuw i8, ptr %93, i64 32
  store i32 %96, ptr %97, align 8
  %98 = tail call ptr @lappend(ptr noundef %.0, ptr noundef %93) #7
  %99 = add i32 %.sroa.18.0, 1
  br label %16, !llvm.loop !9
}